   1               		.file	"main.c"
   2               	__SP_H__ = 0x3e
   3               	__SP_L__ = 0x3d
   4               	__SREG__ = 0x3f
   5               	__CCP__ = 0x34
   6               	__tmp_reg__ = 0
   7               	__zero_reg__ = 1
   8               		.text
   9               	.Ltext0:
  10               		.cfi_sections	.debug_frame
  11               		.section	.rodata.str1.1,"aMS",@progbits,1
  12               	.LC0:
  13 0000 5354 4152 		.string	"START\n"
  13      540A 00
  14               	.LC1:
  15 0007 4449 5354 		.string	"DIST MM: %d | STEPS: %d | SPEED MM: %d | SPEED STEP: %d | STEP TIME: %d\n"
  15      204D 4D3A 
  15      2025 6420 
  15      7C20 5354 
  15      4550 533A 
  16               	.LC2:
  17 0050 4D6F 7665 		.string	"Move done!\n"
  17      2064 6F6E 
  17      6521 0A00 
  18               		.section	.text.startup,"ax",@progbits
  19               	.global	main
  21               	main:
  22               	.LFB18:
  23               		.file 1 "Src/core/main.c"
   1:Src/core/main.c **** //***************************************************************************
   2:Src/core/main.c **** // Copyright (C) 2017 Laboratório de Sistemas e Tecnologia Subaquática      *
   3:Src/core/main.c **** // Departamento de Engenharia Electrotécnica e de Computadores              *
   4:Src/core/main.c **** // Rua Dr. Roberto Frias, 4200-465 Porto, Portugal                          *
   5:Src/core/main.c **** //***************************************************************************
   6:Src/core/main.c **** // Author: João Costa                                                       *
   7:Src/core/main.c **** //***************************************************************************
   8:Src/core/main.c **** 
   9:Src/core/main.c **** #include "../../Inc/core/main.h"
  10:Src/core/main.c **** 
  11:Src/core/main.c **** uint32_t time = 0;
  12:Src/core/main.c **** int var = 0;
  13:Src/core/main.c **** int state = 1;
  14:Src/core/main.c **** int main(void)
  15:Src/core/main.c **** {
  24               		.loc 1 15 1 view -0
  25               		.cfi_startproc
  26               	/* prologue: function */
  27               	/* frame size = 0 */
  28               	/* stack size = 0 */
  29               	.L__stack_usage = 0
  16:Src/core/main.c ****   cli();
  30               		.loc 1 16 3 view .LVU1
  31               	/* #APP */
  32               	 ;  16 "Src/core/main.c" 1
  33 0000 F894      		cli
  34               	 ;  0 "" 2
  17:Src/core/main.c ****   board_init();
  35               		.loc 1 17 3 view .LVU2
  36               	/* #NOAPP */
  37               	.LBB4:
  38               	.LBI4:
  39               		.file 2 "Src/core/../../Inc/core/../../Inc/core/board_init.h"
   1:Src/core/../../Inc/core/../../Inc/core/board_init.h **** //***************************************************************************
   2:Src/core/../../Inc/core/../../Inc/core/board_init.h **** // Copyright (C) 2017 Laboratório de Sistemas e Tecnologia Subaquática      *
   3:Src/core/../../Inc/core/../../Inc/core/board_init.h **** // Departamento de Engenharia Electrotécnica e de Computadores              *
   4:Src/core/../../Inc/core/../../Inc/core/board_init.h **** // Rua Dr. Roberto Frias, 4200-465 Porto, Portugal                          *
   5:Src/core/../../Inc/core/../../Inc/core/board_init.h **** //***************************************************************************
   6:Src/core/../../Inc/core/../../Inc/core/board_init.h **** // Author: Pedro Gonçalves                                                  *
   7:Src/core/../../Inc/core/../../Inc/core/board_init.h **** //***************************************************************************
   8:Src/core/../../Inc/core/../../Inc/core/board_init.h **** 
   9:Src/core/../../Inc/core/../../Inc/core/board_init.h **** /// ISO C 99 headers.
  10:Src/core/../../Inc/core/../../Inc/core/board_init.h **** #include <stddef.h>
  11:Src/core/../../Inc/core/../../Inc/core/board_init.h **** #include <inttypes.h>
  12:Src/core/../../Inc/core/../../Inc/core/board_init.h **** #include <stdio.h>
  13:Src/core/../../Inc/core/../../Inc/core/board_init.h **** #include <stdlib.h>
  14:Src/core/../../Inc/core/../../Inc/core/board_init.h **** #include <string.h>
  15:Src/core/../../Inc/core/../../Inc/core/board_init.h **** 
  16:Src/core/../../Inc/core/../../Inc/core/board_init.h **** // Local Headers
  17:Src/core/../../Inc/core/../../Inc/core/board_init.h **** #include "../../config.h"
  18:Src/core/../../Inc/core/../../Inc/core/board_init.h **** #include "../driver/io.h"
  19:Src/core/../../Inc/core/../../Inc/core/board_init.h **** #include "../../Inc/driver/stepper_driver.h"
  20:Src/core/../../Inc/core/../../Inc/core/board_init.h **** #include "../../TC_driver/TC_driver.h"
  21:Src/core/../../Inc/core/../../Inc/core/board_init.h **** 
  22:Src/core/../../Inc/core/../../Inc/core/board_init.h **** // AVR headers.
  23:Src/core/../../Inc/core/../../Inc/core/board_init.h **** #include <avr/io.h>
  24:Src/core/../../Inc/core/../../Inc/core/board_init.h **** 
  25:Src/core/../../Inc/core/../../Inc/core/board_init.h **** #ifndef BOARD_INIT_H_INCLUDED_
  26:Src/core/../../Inc/core/../../Inc/core/board_init.h **** #define BOARD_INIT_H_INCLUDED_
  27:Src/core/../../Inc/core/../../Inc/core/board_init.h **** 
  28:Src/core/../../Inc/core/../../Inc/core/board_init.h **** static inline void
  29:Src/core/../../Inc/core/../../Inc/core/board_init.h **** board_init(void)
  40               		.loc 2 29 1 view .LVU3
  41               	.LBB5:
  30:Src/core/../../Inc/core/../../Inc/core/board_init.h **** {
  31:Src/core/../../Inc/core/../../Inc/core/board_init.h ****   //***********************************************************************
  32:Src/core/../../Inc/core/../../Inc/core/board_init.h ****   // System Clock.                                                        *
  33:Src/core/../../Inc/core/../../Inc/core/board_init.h ****   //***********************************************************************
  34:Src/core/../../Inc/core/../../Inc/core/board_init.h ****   // ENABLE INTERNAL 32MHZ OSCILLATOR
  35:Src/core/../../Inc/core/../../Inc/core/board_init.h **** 
  36:Src/core/../../Inc/core/../../Inc/core/board_init.h ****   CCP = CCP_IOREG_gc;
  42               		.loc 2 36 3 view .LVU4
  43               		.loc 2 36 7 is_stmt 0 view .LVU5
  44 0002 88ED      		ldi r24,lo8(-40)
  45 0004 84BF      		out __CCP__,r24
  37:Src/core/../../Inc/core/../../Inc/core/board_init.h **** 
  38:Src/core/../../Inc/core/../../Inc/core/board_init.h ****   OSC.CTRL = OSC_RC32MEN_bm;
  46               		.loc 2 38 3 is_stmt 1 view .LVU6
  47               		.loc 2 38 12 is_stmt 0 view .LVU7
  48 0006 82E0      		ldi r24,lo8(2)
  49 0008 8093 5000 		sts 80,r24
  39:Src/core/../../Inc/core/../../Inc/core/board_init.h **** 
  40:Src/core/../../Inc/core/../../Inc/core/board_init.h ****   while (!(OSC.STATUS & OSC_RC32MRDY_bm))
  50               		.loc 2 40 3 is_stmt 1 view .LVU8
  51               	.L2:
  41:Src/core/../../Inc/core/../../Inc/core/board_init.h ****     ;
  52               		.loc 2 41 5 view .LVU9
  40:Src/core/../../Inc/core/../../Inc/core/board_init.h ****     ;
  53               		.loc 2 40 9 view .LVU10
  40:Src/core/../../Inc/core/../../Inc/core/board_init.h ****     ;
  54               		.loc 2 40 15 is_stmt 0 view .LVU11
  55 000c 8091 5100 		lds r24,81
  40:Src/core/../../Inc/core/../../Inc/core/board_init.h ****     ;
  56               		.loc 2 40 9 view .LVU12
  57 0010 81FF      		sbrs r24,1
  58 0012 00C0      		rjmp .L2
  42:Src/core/../../Inc/core/../../Inc/core/board_init.h **** 
  43:Src/core/../../Inc/core/../../Inc/core/board_init.h ****   CCP = CCP_IOREG_gc;
  59               		.loc 2 43 3 is_stmt 1 view .LVU13
  60               		.loc 2 43 7 is_stmt 0 view .LVU14
  61 0014 88ED      		ldi r24,lo8(-40)
  62 0016 84BF      		out __CCP__,r24
  44:Src/core/../../Inc/core/../../Inc/core/board_init.h **** 
  45:Src/core/../../Inc/core/../../Inc/core/board_init.h ****   CLK.CTRL = CLK_SCLKSEL_RC32M_gc;
  63               		.loc 2 45 3 is_stmt 1 view .LVU15
  64               		.loc 2 45 12 is_stmt 0 view .LVU16
  65 0018 81E0      		ldi r24,lo8(1)
  66 001a 8093 4000 		sts 64,r24
  46:Src/core/../../Inc/core/../../Inc/core/board_init.h **** 
  47:Src/core/../../Inc/core/../../Inc/core/board_init.h ****   //***********************************************************************
  48:Src/core/../../Inc/core/../../Inc/core/board_init.h ****   //* GPIO.                                                               *
  49:Src/core/../../Inc/core/../../Inc/core/board_init.h ****   //***********************************************************************
  50:Src/core/../../Inc/core/../../Inc/core/board_init.h **** 
  51:Src/core/../../Inc/core/../../Inc/core/board_init.h ****   // Setup pins as IN/OUTputs
  52:Src/core/../../Inc/core/../../Inc/core/board_init.h ****   GPIO_CFG_OUT(LED, false);
  67               		.loc 2 52 3 is_stmt 1 view .LVU17
  68 001e 40E0      		ldi r20,0
  69 0020 60E0      		ldi r22,0
  70 0022 80E4      		ldi r24,lo8(64)
  71 0024 96E0      		ldi r25,lo8(6)
  72 0026 0E94 0000 		call gpio_cfg_out_np
  73               	.LVL0:
  53:Src/core/../../Inc/core/../../Inc/core/board_init.h ****   GPIO_CFG_OPC(LED, GPIO_OPC_PULLDOWN);
  74               		.loc 2 53 3 view .LVU18
  75 002a 40E1      		ldi r20,lo8(16)
  76 002c 60E0      		ldi r22,0
  77 002e 80E4      		ldi r24,lo8(64)
  78 0030 96E0      		ldi r25,lo8(6)
  79 0032 0E94 0000 		call gpio_cfg_opc_np
  80               	.LVL1:
  54:Src/core/../../Inc/core/../../Inc/core/board_init.h **** 
  55:Src/core/../../Inc/core/../../Inc/core/board_init.h ****   // Setup stepper pins
  56:Src/core/../../Inc/core/../../Inc/core/board_init.h ****   STEPPER_CFG_A(STEPPER1_A, false);
  81               		.loc 2 56 3 view .LVU19
  82 0036 40E0      		ldi r20,0
  83 0038 60E0      		ldi r22,0
  84 003a 80E6      		ldi r24,lo8(96)
  85 003c 96E0      		ldi r25,lo8(6)
  86 003e 0E94 0000 		call servo_cfg_A
  87               	.LVL2:
  57:Src/core/../../Inc/core/../../Inc/core/board_init.h ****   STEPPER_CFG_A_(STEPPER1_a, false);
  88               		.loc 2 57 3 view .LVU20
  89 0042 40E0      		ldi r20,0
  90 0044 61E0      		ldi r22,lo8(1)
  91 0046 80E6      		ldi r24,lo8(96)
  92 0048 96E0      		ldi r25,lo8(6)
  93 004a 0E94 0000 		call servo_cfg_A_
  94               	.LVL3:
  58:Src/core/../../Inc/core/../../Inc/core/board_init.h ****   STEPPER_CFG_B(STEPPER1_B, false);
  95               		.loc 2 58 3 view .LVU21
  96 004e 40E0      		ldi r20,0
  97 0050 64E0      		ldi r22,lo8(4)
  98 0052 80E6      		ldi r24,lo8(96)
  99 0054 96E0      		ldi r25,lo8(6)
 100 0056 0E94 0000 		call servo_cfg_B
 101               	.LVL4:
  59:Src/core/../../Inc/core/../../Inc/core/board_init.h ****   STEPPER_CFG_B_(STEPPER1_b, false);
 102               		.loc 2 59 3 view .LVU22
 103 005a 40E0      		ldi r20,0
 104 005c 65E0      		ldi r22,lo8(5)
 105 005e 80E6      		ldi r24,lo8(96)
 106 0060 96E0      		ldi r25,lo8(6)
 107 0062 0E94 0000 		call servo_cfg_B_
 108               	.LVL5:
  60:Src/core/../../Inc/core/../../Inc/core/board_init.h **** 
  61:Src/core/../../Inc/core/../../Inc/core/board_init.h ****   // UART Pins Init
  62:Src/core/../../Inc/core/../../Inc/core/board_init.h ****   GPIO_CFG_OUT(UART0_TX, false);
 109               		.loc 2 62 3 view .LVU23
 110 0066 40E0      		ldi r20,0
 111 0068 63E0      		ldi r22,lo8(3)
 112 006a 80E4      		ldi r24,lo8(64)
 113 006c 96E0      		ldi r25,lo8(6)
 114 006e 0E94 0000 		call gpio_cfg_out_np
 115               	.LVL6:
  63:Src/core/../../Inc/core/../../Inc/core/board_init.h ****   GPIO_CFG_IN(UART0_RX);
 116               		.loc 2 63 3 view .LVU24
 117 0072 62E0      		ldi r22,lo8(2)
 118 0074 80E4      		ldi r24,lo8(64)
 119 0076 96E0      		ldi r25,lo8(6)
 120 0078 0E94 0000 		call gpio_cfg_in_np
 121               	.LVL7:
  64:Src/core/../../Inc/core/../../Inc/core/board_init.h **** 
  65:Src/core/../../Inc/core/../../Inc/core/board_init.h ****   //***********************************************************************
  66:Src/core/../../Inc/core/../../Inc/core/board_init.h ****   //* Interrupt levels.                                                   *
  67:Src/core/../../Inc/core/../../Inc/core/board_init.h ****   //***********************************************************************
  68:Src/core/../../Inc/core/../../Inc/core/board_init.h ****   //Enables High, Medium and Low Level Interrupts
  69:Src/core/../../Inc/core/../../Inc/core/board_init.h ****   PMIC.CTRL |= PMIC_HILVLEN_bm | PMIC_MEDLVLEN_bm | PMIC_LOLVLEN_bm;
 122               		.loc 2 69 3 view .LVU25
 123               		.loc 2 69 13 is_stmt 0 view .LVU26
 124 007c 8091 A200 		lds r24,162
 125 0080 8760      		ori r24,lo8(7)
 126 0082 8093 A200 		sts 162,r24
 127               	.LBE5:
 128               	.LBE4:
  18:Src/core/main.c ****   clock_init();
 129               		.loc 1 18 3 is_stmt 1 view .LVU27
 130 0086 0E94 0000 		call clock_init
 131               	.LVL8:
  19:Src/core/main.c ****   initUsart();
 132               		.loc 1 19 3 view .LVU28
 133 008a 0E94 0000 		call initUsart
 134               	.LVL9:
  20:Src/core/main.c ****   sei();
 135               		.loc 1 20 3 view .LVU29
 136               	/* #APP */
 137               	 ;  20 "Src/core/main.c" 1
 138 008e 7894      		sei
 139               	 ;  0 "" 2
  21:Src/core/main.c **** 
  22:Src/core/main.c ****   spew("START\n");
 140               		.loc 1 22 3 view .LVU30
 141               	/* #NOAPP */
 142 0090 80E0      		ldi r24,lo8(.LC0)
 143 0092 90E0      		ldi r25,hi8(.LC0)
 144 0094 9F93      		push r25
 145               		.cfi_def_cfa_offset 3
 146 0096 8F93      		push r24
 147               		.cfi_def_cfa_offset 4
 148 0098 0E94 0000 		call spew
 149               	.LVL10:
  23:Src/core/main.c ****   //time = get_timer_value();
  24:Src/core/main.c ****   set_step_timer();
 150               		.loc 1 24 3 view .LVU31
 151 009c 0E94 0000 		call set_step_timer
 152               	.LVL11:
  25:Src/core/main.c ****   reset_step_count();
 153               		.loc 1 25 3 view .LVU32
 154 00a0 0E94 0000 		call reset_step_count
 155               	.LVL12:
  26:Src/core/main.c ****   spew("DIST MM: %d | STEPS: %d | SPEED MM: %d | SPEED STEP: %d | STEP TIME: %d\n", STEP_DISTANCE_M
 156               		.loc 1 26 3 view .LVU33
 157 00a4 1F92      		push __zero_reg__
 158               		.cfi_def_cfa_offset 5
 159 00a6 81E2      		ldi r24,lo8(33)
 160 00a8 8F93      		push r24
 161               		.cfi_def_cfa_offset 6
 162 00aa 1F92      		push __zero_reg__
 163               		.cfi_def_cfa_offset 7
 164 00ac 8EE1      		ldi r24,lo8(30)
 165 00ae 8F93      		push r24
 166               		.cfi_def_cfa_offset 8
 167 00b0 1F92      		push __zero_reg__
 168               		.cfi_def_cfa_offset 9
 169 00b2 9CE3      		ldi r25,lo8(60)
 170 00b4 9F93      		push r25
 171               		.cfi_def_cfa_offset 10
 172 00b6 1F92      		push __zero_reg__
 173               		.cfi_def_cfa_offset 11
 174 00b8 9FE0      		ldi r25,lo8(15)
 175 00ba 9F93      		push r25
 176               		.cfi_def_cfa_offset 12
 177 00bc 1F92      		push __zero_reg__
 178               		.cfi_def_cfa_offset 13
 179 00be 8F93      		push r24
 180               		.cfi_def_cfa_offset 14
 181 00c0 80E0      		ldi r24,lo8(.LC1)
 182 00c2 90E0      		ldi r25,hi8(.LC1)
 183 00c4 9F93      		push r25
 184               		.cfi_def_cfa_offset 15
 185 00c6 8F93      		push r24
 186               		.cfi_def_cfa_offset 16
 187 00c8 0E94 0000 		call spew
 188               	.LVL13:
 189 00cc 8DB7      		in r24,__SP_L__
 190 00ce 9EB7      		in r25,__SP_H__
 191 00d0 0E96      		adiw r24,14
 192 00d2 8DBF      		out __SP_L__,r24
 193 00d4 9EBF      		out __SP_H__,r25
 194               		.cfi_def_cfa_offset 2
 195               	.L4:
  27:Src/core/main.c ****   while (1)
  28:Src/core/main.c ****   {
  29:Src/core/main.c ****     if (state == 1)
 196               		.loc 1 29 15 is_stmt 0 view .LVU34
 197 00d6 8091 0000 		lds r24,state
 198 00da 9091 0000 		lds r25,state+1
 199               	.L3:
  27:Src/core/main.c ****   while (1)
 200               		.loc 1 27 3 is_stmt 1 view .LVU35
 201               		.loc 1 29 5 view .LVU36
 202               		.loc 1 29 8 is_stmt 0 view .LVU37
 203 00de 8130      		cpi r24,1
 204 00e0 9105      		cpc r25,__zero_reg__
 205 00e2 01F4      		brne .L3
  30:Src/core/main.c ****     {
  31:Src/core/main.c ****       var = move_forward();
 206               		.loc 1 31 7 is_stmt 1 view .LVU38
 207               		.loc 1 31 13 is_stmt 0 view .LVU39
 208 00e4 0E94 0000 		call move_forward
 209               	.LVL14:
 210               		.loc 1 31 11 view .LVU40
 211 00e8 8093 0000 		sts var,r24
 212 00ec 9093 0000 		sts var+1,r25
  32:Src/core/main.c ****       if (var != 0){
 213               		.loc 1 32 7 is_stmt 1 view .LVU41
 214               		.loc 1 32 10 is_stmt 0 view .LVU42
 215 00f0 892B      		or r24,r25
 216 00f2 01F0      		breq .L4
  33:Src/core/main.c ****         state = 0;
 217               		.loc 1 33 9 is_stmt 1 view .LVU43
 218               		.loc 1 33 15 is_stmt 0 view .LVU44
 219 00f4 1092 0000 		sts state,__zero_reg__
 220 00f8 1092 0000 		sts state+1,__zero_reg__
  34:Src/core/main.c ****         break;}
 221               		.loc 1 34 9 is_stmt 1 view .LVU45
  35:Src/core/main.c ****     }
  36:Src/core/main.c ****   }
  37:Src/core/main.c **** 
  38:Src/core/main.c ****   spew("Move done!\n");
 222               		.loc 1 38 3 view .LVU46
 223 00fc 80E0      		ldi r24,lo8(.LC2)
 224 00fe 90E0      		ldi r25,hi8(.LC2)
 225 0100 9F93      		push r25
 226               		.cfi_def_cfa_offset 3
 227 0102 8F93      		push r24
 228               		.cfi_def_cfa_offset 4
 229 0104 0E94 0000 		call spew
 230               	.LVL15:
  39:Src/core/main.c **** }...
 231               		.loc 1 39 1 is_stmt 0 view .LVU47
 232 0108 0F90      		pop __tmp_reg__
 233 010a 0F90      		pop __tmp_reg__
 234               		.cfi_def_cfa_offset 2
 235               	/* epilogue start */
 236 010c 0895      		ret
 237               		.cfi_endproc
 238               	.LFE18:
 240               	.global	state
 241               		.data
 244               	state:
 245 0000 0100      		.word	1
 246               	.global	var
 247               		.section .bss
 250               	var:
 251 0000 0000      		.zero	2
 252               	.global	time
 255               	time:
 256 0002 0000 0000 		.zero	4
 257               		.comm	stepper_motor_t,10,1
 258               		.text
 259               	.Letext0:
 260               		.file 3 "/usr/local/Cellar/avr-gcc/9.3.0/lib/avr-gcc/9/gcc/avr/9.3.0/include/stdint-gcc.h"
 261               		.file 4 "/usr/local/Cellar/avr-gcc/9.3.0/avr/include/avr/iox32a4u.h"
 262               		.file 5 "/usr/local/Cellar/avr-gcc/9.3.0/lib/avr-gcc/9/gcc/avr/9.3.0/include/stddef.h"
 263               		.file 6 "/usr/local/Cellar/avr-gcc/9.3.0/avr/include/stdio.h"
 264               		.file 7 "/usr/local/Cellar/avr-gcc/9.3.0/avr/include/stdlib.h"
 265               		.file 8 "Src/core/../../Inc/core/../../Inc/core/../driver/io.h"
 266               		.file 9 "Src/core/../../Inc/core/../../Inc/core/../../Inc/driver/stepper_driver.h"
 267               		.file 10 "Src/core/../../Inc/core/../../Inc/core/../../Inc/driver/clock.h"
 268               		.file 11 "Src/core/../../Inc/core/../../Inc/core/../../Inc/driver/uart.h"