   1               		.file	"servo_driver.c"
   2               	__SP_H__ = 0x3e
   3               	__SP_L__ = 0x3d
   4               	__SREG__ = 0x3f
   5               	__CCP__ = 0x34
   6               	__tmp_reg__ = 0
   7               	__zero_reg__ = 1
  10               		.text
  11               	.Ltext0:
 490               	.global	servo_cfg_start
 492               	servo_cfg_start:
 493               		.stabd	46,0,0
   1:Src/driver/servo_driver.c **** #include <stdlib.h>
   2:Src/driver/servo_driver.c **** #include <avr/io.h>
   3:Src/driver/servo_driver.c **** #include <avr/interrupt.h>
   4:Src/driver/servo_driver.c **** #include <util/delay.h>
   5:Src/driver/servo_driver.c **** #include <avr/pgmspace.h>
   6:Src/driver/servo_driver.c **** #include <stdbool.h>
   7:Src/driver/servo_driver.c **** 
   8:Src/driver/servo_driver.c **** #include "../../Inc/driver/io.h"
   9:Src/driver/servo_driver.c **** #include "../../Inc/driver/servo_driver.h"
  10:Src/driver/servo_driver.c **** 
  11:Src/driver/servo_driver.c **** void servo_cfg_start(servo_motor_t servo, PORT_t *port, uint8_t pin, bool value)
  12:Src/driver/servo_driver.c **** {
 495               	.LM0:
 496               	.LFBB1:
 497 0000 8F92      		push r8
 498 0002 AF92      		push r10
 499 0004 CF92      		push r12
 500 0006 DF92      		push r13
 501 0008 EF92      		push r14
 502 000a FF92      		push r15
 503 000c 0F93      		push r16
 504 000e 1F93      		push r17
 505 0010 CF93      		push r28
 506 0012 DF93      		push r29
 507 0014 CDB7      		in r28,__SP_L__
 508 0016 DEB7      		in r29,__SP_H__
 509 0018 2C97      		sbiw r28,12
 510 001a CDBF      		out __SP_L__,r28
 511 001c DEBF      		out __SP_H__,r29
 512               	/* prologue: function */
 513               	/* frame size = 12 */
 514               	/* stack size = 22 */
 515               	.L__stack_usage = 22
 516 001e E982      		std Y+1,r14
 517 0020 FA82      		std Y+2,r15
 518 0022 C601      		movw r24,r12
 519 0024 6A2D      		mov r22,r10
 520 0026 482D      		mov r20,r8
 521 0028 E981      		ldd r30,Y+1
 522 002a FA81      		ldd r31,Y+2
  13:Src/driver/servo_driver.c ****   servo.start_stop->port = port;
 524               	.LM1:
 525 002c C082      		st Z,r12
 526 002e D182      		std Z+1,r13
  14:Src/driver/servo_driver.c ****   servo.start_stop->pin = pin;
 528               	.LM2:
 529 0030 A282      		std Z+2,r10
 530               	/* epilogue start */
  15:Src/driver/servo_driver.c ****   gpio_cfg_out_np(port, pin, value);
  16:Src/driver/servo_driver.c **** }
 532               	.LM3:
 533 0032 2C96      		adiw r28,12
 534 0034 CDBF      		out __SP_L__,r28
 535 0036 DEBF      		out __SP_H__,r29
 536 0038 DF91      		pop r29
 537 003a CF91      		pop r28
 538 003c 1F91      		pop r17
 539 003e 0F91      		pop r16
 540 0040 FF90      		pop r15
 541 0042 EF90      		pop r14
 542 0044 DF90      		pop r13
 543 0046 CF90      		pop r12
 544 0048 AF90      		pop r10
 545 004a 8F90      		pop r8
  15:Src/driver/servo_driver.c ****   gpio_cfg_out_np(port, pin, value);
 547               	.LM4:
 548 004c 0C94 0000 		jmp gpio_cfg_out_np
 550               	.Lscope1:
 552               		.stabd	78,0,0
 558               	.global	servo_cfg_brake
 560               	servo_cfg_brake:
 561               		.stabd	46,0,0
  17:Src/driver/servo_driver.c **** 
  18:Src/driver/servo_driver.c **** void servo_cfg_brake(servo_motor_t servo, PORT_t *port, uint8_t pin, bool value)
  19:Src/driver/servo_driver.c **** {
 563               	.LM5:
 564               	.LFBB2:
 565 0050 8F92      		push r8
 566 0052 AF92      		push r10
 567 0054 CF92      		push r12
 568 0056 DF92      		push r13
 569 0058 EF92      		push r14
 570 005a FF92      		push r15
 571 005c 0F93      		push r16
 572 005e 1F93      		push r17
 573 0060 CF93      		push r28
 574 0062 DF93      		push r29
 575 0064 CDB7      		in r28,__SP_L__
 576 0066 DEB7      		in r29,__SP_H__
 577 0068 2C97      		sbiw r28,12
 578 006a CDBF      		out __SP_L__,r28
 579 006c DEBF      		out __SP_H__,r29
 580               	/* prologue: function */
 581               	/* frame size = 12 */
 582               	/* stack size = 22 */
 583               	.L__stack_usage = 22
 584 006e 0B83      		std Y+3,r16
 585 0070 1C83      		std Y+4,r17
 586 0072 C601      		movw r24,r12
 587 0074 6A2D      		mov r22,r10
 588 0076 482D      		mov r20,r8
 589 0078 EB81      		ldd r30,Y+3
 590 007a FC81      		ldd r31,Y+4
  20:Src/driver/servo_driver.c ****   servo.run_brake->port = port;
 592               	.LM6:
 593 007c C082      		st Z,r12
 594 007e D182      		std Z+1,r13
  21:Src/driver/servo_driver.c ****   servo.run_brake->pin = pin;
 596               	.LM7:
 597 0080 A282      		std Z+2,r10
 598               	/* epilogue start */
  22:Src/driver/servo_driver.c ****   gpio_cfg_out_np(port, pin, value);
  23:Src/driver/servo_driver.c **** }
 600               	.LM8:
 601 0082 2C96      		adiw r28,12
 602 0084 CDBF      		out __SP_L__,r28
 603 0086 DEBF      		out __SP_H__,r29
 604 0088 DF91      		pop r29
 605 008a CF91      		pop r28
 606 008c 1F91      		pop r17
 607 008e 0F91      		pop r16
 608 0090 FF90      		pop r15
 609 0092 EF90      		pop r14
 610 0094 DF90      		pop r13
 611 0096 CF90      		pop r12
 612 0098 AF90      		pop r10
 613 009a 8F90      		pop r8
  22:Src/driver/servo_driver.c ****   gpio_cfg_out_np(port, pin, value);
 615               	.LM9:
 616 009c 0C94 0000 		jmp gpio_cfg_out_np
 618               	.Lscope2:
 620               		.stabd	78,0,0
 625               	.global	servo_cfg_alarm_in
 627               	servo_cfg_alarm_in:
 628               		.stabd	46,0,0
  24:Src/driver/servo_driver.c **** 
  25:Src/driver/servo_driver.c **** void servo_cfg_alarm_in(servo_motor_t servo, PORT_t *port, uint8_t pin)
  26:Src/driver/servo_driver.c **** {
 630               	.LM10:
 631               	.LFBB3:
 632 00a0 AF92      		push r10
 633 00a2 CF92      		push r12
 634 00a4 DF92      		push r13
 635 00a6 EF92      		push r14
 636 00a8 FF92      		push r15
 637 00aa 0F93      		push r16
 638 00ac 1F93      		push r17
 639 00ae CF93      		push r28
 640 00b0 DF93      		push r29
 641 00b2 CDB7      		in r28,__SP_L__
 642 00b4 DEB7      		in r29,__SP_H__
 643 00b6 2C97      		sbiw r28,12
 644 00b8 CDBF      		out __SP_L__,r28
 645 00ba DEBF      		out __SP_H__,r29
 646               	/* prologue: function */
 647               	/* frame size = 12 */
 648               	/* stack size = 21 */
 649               	.L__stack_usage = 21
 650 00bc 2D83      		std Y+5,r18
 651 00be 3E83      		std Y+6,r19
 652 00c0 C601      		movw r24,r12
 653 00c2 6A2D      		mov r22,r10
 654 00c4 ED81      		ldd r30,Y+5
 655 00c6 FE81      		ldd r31,Y+6
  27:Src/driver/servo_driver.c ****   servo.alarm->port = port;
 657               	.LM11:
 658 00c8 C082      		st Z,r12
 659 00ca D182      		std Z+1,r13
  28:Src/driver/servo_driver.c ****   servo.alarm->pin = pin;
 661               	.LM12:
 662 00cc A282      		std Z+2,r10
 663               	/* epilogue start */
  29:Src/driver/servo_driver.c ****   gpio_cfg_in_np(port, pin);
  30:Src/driver/servo_driver.c **** }
 665               	.LM13:
 666 00ce 2C96      		adiw r28,12
 667 00d0 CDBF      		out __SP_L__,r28
 668 00d2 DEBF      		out __SP_H__,r29
 669 00d4 DF91      		pop r29
 670 00d6 CF91      		pop r28
 671 00d8 1F91      		pop r17
 672 00da 0F91      		pop r16
 673 00dc FF90      		pop r15
 674 00de EF90      		pop r14
 675 00e0 DF90      		pop r13
 676 00e2 CF90      		pop r12
 677 00e4 AF90      		pop r10
  29:Src/driver/servo_driver.c ****   gpio_cfg_in_np(port, pin);
 679               	.LM14:
 680 00e6 0C94 0000 		jmp gpio_cfg_in_np
 682               	.Lscope3:
 684               		.stabd	78,0,0
 690               	.global	servo_cfg_alarm_out
 692               	servo_cfg_alarm_out:
 693               		.stabd	46,0,0
  31:Src/driver/servo_driver.c **** 
  32:Src/driver/servo_driver.c **** void servo_cfg_alarm_out(servo_motor_t servo, PORT_t *port, uint8_t pin, bool value)
  33:Src/driver/servo_driver.c **** {
 695               	.LM15:
 696               	.LFBB4:
 697 00ea 8F92      		push r8
 698 00ec AF92      		push r10
 699 00ee CF92      		push r12
 700 00f0 DF92      		push r13
 701 00f2 EF92      		push r14
 702 00f4 FF92      		push r15
 703 00f6 0F93      		push r16
 704 00f8 1F93      		push r17
 705 00fa CF93      		push r28
 706 00fc DF93      		push r29
 707 00fe CDB7      		in r28,__SP_L__
 708 0100 DEB7      		in r29,__SP_H__
 709 0102 2C97      		sbiw r28,12
 710 0104 CDBF      		out __SP_L__,r28
 711 0106 DEBF      		out __SP_H__,r29
 712               	/* prologue: function */
 713               	/* frame size = 12 */
 714               	/* stack size = 22 */
 715               	.L__stack_usage = 22
 716 0108 4F83      		std Y+7,r20
 717 010a 5887      		std Y+8,r21
 718 010c C601      		movw r24,r12
 719 010e 6A2D      		mov r22,r10
 720 0110 482D      		mov r20,r8
 721 0112 EF81      		ldd r30,Y+7
 722 0114 F885      		ldd r31,Y+8
  34:Src/driver/servo_driver.c ****   servo.reset_alarm->port = port;
 724               	.LM16:
 725 0116 C082      		st Z,r12
 726 0118 D182      		std Z+1,r13
  35:Src/driver/servo_driver.c ****   servo.reset_alarm->pin = pin;
 728               	.LM17:
 729 011a A282      		std Z+2,r10
 730               	/* epilogue start */
  36:Src/driver/servo_driver.c ****   gpio_cfg_out_np(port, pin, value);
  37:Src/driver/servo_driver.c **** }
 732               	.LM18:
 733 011c 2C96      		adiw r28,12
 734 011e CDBF      		out __SP_L__,r28
 735 0120 DEBF      		out __SP_H__,r29
 736 0122 DF91      		pop r29
 737 0124 CF91      		pop r28
 738 0126 1F91      		pop r17
 739 0128 0F91      		pop r16
 740 012a FF90      		pop r15
 741 012c EF90      		pop r14
 742 012e DF90      		pop r13
 743 0130 CF90      		pop r12
 744 0132 AF90      		pop r10
 745 0134 8F90      		pop r8
  36:Src/driver/servo_driver.c ****   gpio_cfg_out_np(port, pin, value);
 747               	.LM19:
 748 0136 0C94 0000 		jmp gpio_cfg_out_np
 750               	.Lscope4:
 752               		.stabd	78,0,0
 757               	.global	servo_cfg_speed_in
 759               	servo_cfg_speed_in:
 760               		.stabd	46,0,0
  38:Src/driver/servo_driver.c **** 
  39:Src/driver/servo_driver.c **** void servo_cfg_speed_in(servo_motor_t servo, PORT_t *port, uint8_t pin)
  40:Src/driver/servo_driver.c **** {
 762               	.LM20:
 763               	.LFBB5:
 764 013a AF92      		push r10
 765 013c CF92      		push r12
 766 013e DF92      		push r13
 767 0140 EF92      		push r14
 768 0142 FF92      		push r15
 769 0144 0F93      		push r16
 770 0146 1F93      		push r17
 771 0148 CF93      		push r28
 772 014a DF93      		push r29
 773 014c CDB7      		in r28,__SP_L__
 774 014e DEB7      		in r29,__SP_H__
 775 0150 2C97      		sbiw r28,12
 776 0152 CDBF      		out __SP_L__,r28
 777 0154 DEBF      		out __SP_H__,r29
 778               	/* prologue: function */
 779               	/* frame size = 12 */
 780               	/* stack size = 21 */
 781               	.L__stack_usage = 21
 782 0156 4F83      		std Y+7,r20
 783 0158 5887      		std Y+8,r21
 784 015a 6987      		std Y+9,r22
 785 015c 7A87      		std Y+10,r23
 786 015e C601      		movw r24,r12
 787 0160 6A2D      		mov r22,r10
  41:Src/driver/servo_driver.c ****   servo.speed_feedback->port = port;
 789               	.LM21:
 790 0162 E985      		ldd r30,Y+9
 791 0164 FA85      		ldd r31,Y+10
 792 0166 C082      		st Z,r12
 793 0168 D182      		std Z+1,r13
  42:Src/driver/servo_driver.c ****   servo.reset_alarm->pin = pin;
 795               	.LM22:
 796 016a EF81      		ldd r30,Y+7
 797 016c F885      		ldd r31,Y+8
 798 016e A282      		std Z+2,r10
 799               	/* epilogue start */
  43:Src/driver/servo_driver.c ****   gpio_cfg_in_np(port, pin);
  44:Src/driver/servo_driver.c **** }
 801               	.LM23:
 802 0170 2C96      		adiw r28,12
 803 0172 CDBF      		out __SP_L__,r28
 804 0174 DEBF      		out __SP_H__,r29
 805 0176 DF91      		pop r29
 806 0178 CF91      		pop r28
 807 017a 1F91      		pop r17
 808 017c 0F91      		pop r16
 809 017e FF90      		pop r15
 810 0180 EF90      		pop r14
 811 0182 DF90      		pop r13
 812 0184 CF90      		pop r12
 813 0186 AF90      		pop r10
  43:Src/driver/servo_driver.c ****   gpio_cfg_in_np(port, pin);
 815               	.LM24:
 816 0188 0C94 0000 		jmp gpio_cfg_in_np
 818               	.Lscope5:
 820               		.stabd	78,0,0
 826               	.global	servo_cfg_speed_out
 828               	servo_cfg_speed_out:
 829               		.stabd	46,0,0
  45:Src/driver/servo_driver.c **** 
  46:Src/driver/servo_driver.c **** void servo_cfg_speed_out(servo_motor_t servo, PORT_t *port, uint8_t pin, bool value)
  47:Src/driver/servo_driver.c **** {
 831               	.LM25:
 832               	.LFBB6:
 833 018c 8F92      		push r8
 834 018e AF92      		push r10
 835 0190 CF92      		push r12
 836 0192 DF92      		push r13
 837 0194 EF92      		push r14
 838 0196 FF92      		push r15
 839 0198 0F93      		push r16
 840 019a 1F93      		push r17
 841 019c CF93      		push r28
 842 019e DF93      		push r29
 843 01a0 CDB7      		in r28,__SP_L__
 844 01a2 DEB7      		in r29,__SP_H__
 845 01a4 2C97      		sbiw r28,12
 846 01a6 CDBF      		out __SP_L__,r28
 847 01a8 DEBF      		out __SP_H__,r29
 848               	/* prologue: function */
 849               	/* frame size = 12 */
 850               	/* stack size = 22 */
 851               	.L__stack_usage = 22
 852 01aa 4F83      		std Y+7,r20
 853 01ac 5887      		std Y+8,r21
 854 01ae 6987      		std Y+9,r22
 855 01b0 7A87      		std Y+10,r23
 856 01b2 C601      		movw r24,r12
 857 01b4 6A2D      		mov r22,r10
 858 01b6 482D      		mov r20,r8
  48:Src/driver/servo_driver.c ****   servo.speed_feedback->port = port;
 860               	.LM26:
 861 01b8 E985      		ldd r30,Y+9
 862 01ba FA85      		ldd r31,Y+10
 863 01bc C082      		st Z,r12
 864 01be D182      		std Z+1,r13
  49:Src/driver/servo_driver.c ****   servo.reset_alarm->pin = pin;
 866               	.LM27:
 867 01c0 EF81      		ldd r30,Y+7
 868 01c2 F885      		ldd r31,Y+8
 869 01c4 A282      		std Z+2,r10
 870               	/* epilogue start */
  50:Src/driver/servo_driver.c ****   gpio_cfg_out_np(port, pin, value);
  51:Src/driver/servo_driver.c **** }
 872               	.LM28:
 873 01c6 2C96      		adiw r28,12
 874 01c8 CDBF      		out __SP_L__,r28
 875 01ca DEBF      		out __SP_H__,r29
 876 01cc DF91      		pop r29
 877 01ce CF91      		pop r28
 878 01d0 1F91      		pop r17
 879 01d2 0F91      		pop r16
 880 01d4 FF90      		pop r15
 881 01d6 EF90      		pop r14
 882 01d8 DF90      		pop r13
 883 01da CF90      		pop r12
 884 01dc AF90      		pop r10
 885 01de 8F90      		pop r8
  50:Src/driver/servo_driver.c ****   gpio_cfg_out_np(port, pin, value);
 887               	.LM29:
 888 01e0 0C94 0000 		jmp gpio_cfg_out_np
 890               	.Lscope6:
 892               		.stabd	78,0,0
 895               	.global	servo_start
 897               	servo_start:
 898               		.stabd	46,0,0
  52:Src/driver/servo_driver.c **** 
  53:Src/driver/servo_driver.c **** void servo_start(servo_motor_t servo)
  54:Src/driver/servo_driver.c **** {
 900               	.LM30:
 901               	.LFBB7:
 902 01e4 EF92      		push r14
 903 01e6 FF92      		push r15
 904 01e8 0F93      		push r16
 905 01ea 1F93      		push r17
 906 01ec CF93      		push r28
 907 01ee DF93      		push r29
 908 01f0 CDB7      		in r28,__SP_L__
 909 01f2 DEB7      		in r29,__SP_H__
 910 01f4 2C97      		sbiw r28,12
 911 01f6 CDBF      		out __SP_L__,r28
 912 01f8 DEBF      		out __SP_H__,r29
 913               	/* prologue: function */
 914               	/* frame size = 12 */
 915               	/* stack size = 18 */
 916               	.L__stack_usage = 18
 917 01fa E982      		std Y+1,r14
 918 01fc FA82      		std Y+2,r15
 919 01fe 0B83      		std Y+3,r16
 920 0200 1C83      		std Y+4,r17
 921 0202 2D83      		std Y+5,r18
 922 0204 3E83      		std Y+6,r19
 923 0206 4F83      		std Y+7,r20
 924 0208 5887      		std Y+8,r21
 925 020a 6987      		std Y+9,r22
 926 020c 7A87      		std Y+10,r23
 927 020e 8B87      		std Y+11,r24
 928 0210 9C87      		std Y+12,r25
 929 0212 E981      		ldd r30,Y+1
 930 0214 FA81      		ldd r31,Y+2
  55:Src/driver/servo_driver.c ****   gpio_clr_np(servo.start_stop->port, servo.start_stop->pin);
 932               	.LM31:
 933 0216 6281      		ldd r22,Z+2
 934 0218 8081      		ld r24,Z
 935 021a 9181      		ldd r25,Z+1
 936               	/* epilogue start */
  56:Src/driver/servo_driver.c **** }
 938               	.LM32:
 939 021c 2C96      		adiw r28,12
 940 021e CDBF      		out __SP_L__,r28
 941 0220 DEBF      		out __SP_H__,r29
 942 0222 DF91      		pop r29
 943 0224 CF91      		pop r28
 944 0226 1F91      		pop r17
 945 0228 0F91      		pop r16
 946 022a FF90      		pop r15
 947 022c EF90      		pop r14
  55:Src/driver/servo_driver.c ****   gpio_clr_np(servo.start_stop->port, servo.start_stop->pin);
 949               	.LM33:
 950 022e 0C94 0000 		jmp gpio_clr_np
 952               	.Lscope7:
 954               		.stabd	78,0,0
 957               	.global	servo_stop
 959               	servo_stop:
 960               		.stabd	46,0,0
  57:Src/driver/servo_driver.c **** 
  58:Src/driver/servo_driver.c **** void servo_stop(servo_motor_t servo)
  59:Src/driver/servo_driver.c **** {
 962               	.LM34:
 963               	.LFBB8:
 964 0232 EF92      		push r14
 965 0234 FF92      		push r15
 966 0236 0F93      		push r16
 967 0238 1F93      		push r17
 968 023a CF93      		push r28
 969 023c DF93      		push r29
 970 023e CDB7      		in r28,__SP_L__
 971 0240 DEB7      		in r29,__SP_H__
 972 0242 2C97      		sbiw r28,12
 973 0244 CDBF      		out __SP_L__,r28
 974 0246 DEBF      		out __SP_H__,r29
 975               	/* prologue: function */
 976               	/* frame size = 12 */
 977               	/* stack size = 18 */
 978               	.L__stack_usage = 18
 979 0248 E982      		std Y+1,r14
 980 024a FA82      		std Y+2,r15
 981 024c 0B83      		std Y+3,r16
 982 024e 1C83      		std Y+4,r17
 983 0250 2D83      		std Y+5,r18
 984 0252 3E83      		std Y+6,r19
 985 0254 4F83      		std Y+7,r20
 986 0256 5887      		std Y+8,r21
 987 0258 6987      		std Y+9,r22
 988 025a 7A87      		std Y+10,r23
 989 025c 8B87      		std Y+11,r24
 990 025e 9C87      		std Y+12,r25
 991 0260 E981      		ldd r30,Y+1
 992 0262 FA81      		ldd r31,Y+2
  60:Src/driver/servo_driver.c ****   gpio_set_np(servo.start_stop->port, servo.start_stop->pin);
 994               	.LM35:
 995 0264 6281      		ldd r22,Z+2
 996 0266 8081      		ld r24,Z
 997 0268 9181      		ldd r25,Z+1
 998               	/* epilogue start */
  61:Src/driver/servo_driver.c **** }
 1000               	.LM36:
 1001 026a 2C96      		adiw r28,12
 1002 026c CDBF      		out __SP_L__,r28
 1003 026e DEBF      		out __SP_H__,r29
 1004 0270 DF91      		pop r29
 1005 0272 CF91      		pop r28
 1006 0274 1F91      		pop r17
 1007 0276 0F91      		pop r16
 1008 0278 FF90      		pop r15
 1009 027a EF90      		pop r14
  60:Src/driver/servo_driver.c ****   gpio_set_np(servo.start_stop->port, servo.start_stop->pin);
 1011               	.LM37:
 1012 027c 0C94 0000 		jmp gpio_set_np
 1014               	.Lscope8:
 1016               		.stabd	78,0,0
 1019               	.global	servo_brake
 1021               	servo_brake:
 1022               		.stabd	46,0,0
  62:Src/driver/servo_driver.c **** 
  63:Src/driver/servo_driver.c **** void servo_brake(servo_motor_t servo)
  64:Src/driver/servo_driver.c **** {
 1024               	.LM38:
 1025               	.LFBB9:
 1026 0280 EF92      		push r14
 1027 0282 FF92      		push r15
 1028 0284 0F93      		push r16
 1029 0286 1F93      		push r17
 1030 0288 CF93      		push r28
 1031 028a DF93      		push r29
 1032 028c CDB7      		in r28,__SP_L__
 1033 028e DEB7      		in r29,__SP_H__
 1034 0290 2C97      		sbiw r28,12
 1035 0292 CDBF      		out __SP_L__,r28
 1036 0294 DEBF      		out __SP_H__,r29
 1037               	/* prologue: function */
 1038               	/* frame size = 12 */
 1039               	/* stack size = 18 */
 1040               	.L__stack_usage = 18
 1041 0296 E982      		std Y+1,r14
 1042 0298 FA82      		std Y+2,r15
 1043 029a 0B83      		std Y+3,r16
 1044 029c 1C83      		std Y+4,r17
 1045 029e 2D83      		std Y+5,r18
 1046 02a0 3E83      		std Y+6,r19
 1047 02a2 4F83      		std Y+7,r20
 1048 02a4 5887      		std Y+8,r21
 1049 02a6 6987      		std Y+9,r22
 1050 02a8 7A87      		std Y+10,r23
 1051 02aa 8B87      		std Y+11,r24
 1052 02ac 9C87      		std Y+12,r25
 1053 02ae EB81      		ldd r30,Y+3
 1054 02b0 FC81      		ldd r31,Y+4
  65:Src/driver/servo_driver.c ****   gpio_clr_np(servo.run_brake->port, servo.run_brake->pin);
 1056               	.LM39:
 1057 02b2 6281      		ldd r22,Z+2
 1058 02b4 8081      		ld r24,Z
 1059 02b6 9181      		ldd r25,Z+1
 1060               	/* epilogue start */
  66:Src/driver/servo_driver.c **** }
 1062               	.LM40:
 1063 02b8 2C96      		adiw r28,12
 1064 02ba CDBF      		out __SP_L__,r28
 1065 02bc DEBF      		out __SP_H__,r29
 1066 02be DF91      		pop r29
 1067 02c0 CF91      		pop r28
 1068 02c2 1F91      		pop r17
 1069 02c4 0F91      		pop r16
 1070 02c6 FF90      		pop r15
 1071 02c8 EF90      		pop r14
  65:Src/driver/servo_driver.c ****   gpio_clr_np(servo.run_brake->port, servo.run_brake->pin);
 1073               	.LM41:
 1074 02ca 0C94 0000 		jmp gpio_clr_np
 1076               	.Lscope9:
 1078               		.stabd	78,0,0
 1081               	.global	servo_run
 1083               	servo_run:
 1084               		.stabd	46,0,0
  67:Src/driver/servo_driver.c **** 
  68:Src/driver/servo_driver.c **** void servo_run(servo_motor_t servo)
  69:Src/driver/servo_driver.c **** {
 1086               	.LM42:
 1087               	.LFBB10:
 1088 02ce EF92      		push r14
 1089 02d0 FF92      		push r15
 1090 02d2 0F93      		push r16
 1091 02d4 1F93      		push r17
 1092 02d6 CF93      		push r28
 1093 02d8 DF93      		push r29
 1094 02da CDB7      		in r28,__SP_L__
 1095 02dc DEB7      		in r29,__SP_H__
 1096 02de 2C97      		sbiw r28,12
 1097 02e0 CDBF      		out __SP_L__,r28
 1098 02e2 DEBF      		out __SP_H__,r29
 1099               	/* prologue: function */
 1100               	/* frame size = 12 */
 1101               	/* stack size = 18 */
 1102               	.L__stack_usage = 18
 1103 02e4 E982      		std Y+1,r14
 1104 02e6 FA82      		std Y+2,r15
 1105 02e8 0B83      		std Y+3,r16
 1106 02ea 1C83      		std Y+4,r17
 1107 02ec 2D83      		std Y+5,r18
 1108 02ee 3E83      		std Y+6,r19
 1109 02f0 4F83      		std Y+7,r20
 1110 02f2 5887      		std Y+8,r21
 1111 02f4 6987      		std Y+9,r22
 1112 02f6 7A87      		std Y+10,r23
 1113 02f8 8B87      		std Y+11,r24
 1114 02fa 9C87      		std Y+12,r25
 1115 02fc EB81      		ldd r30,Y+3
 1116 02fe FC81      		ldd r31,Y+4
  70:Src/driver/servo_driver.c ****   gpio_set_np(servo.run_brake->port, servo.run_brake->pin);
 1118               	.LM43:
 1119 0300 6281      		ldd r22,Z+2
 1120 0302 8081      		ld r24,Z
 1121 0304 9181      		ldd r25,Z+1
 1122               	/* epilogue start */
  71:Src/driver/servo_driver.c **** }
 1124               	.LM44:
 1125 0306 2C96      		adiw r28,12
 1126 0308 CDBF      		out __SP_L__,r28
 1127 030a DEBF      		out __SP_H__,r29
 1128 030c DF91      		pop r29
 1129 030e CF91      		pop r28
 1130 0310 1F91      		pop r17
 1131 0312 0F91      		pop r16
 1132 0314 FF90      		pop r15
 1133 0316 EF90      		pop r14
  70:Src/driver/servo_driver.c ****   gpio_set_np(servo.run_brake->port, servo.run_brake->pin);
 1135               	.LM45:
 1136 0318 0C94 0000 		jmp gpio_set_np
 1138               	.Lscope10:
 1140               		.stabd	78,0,0
 1143               	.global	servo_set_alarm_reset
 1145               	servo_set_alarm_reset:
 1146               		.stabd	46,0,0
  72:Src/driver/servo_driver.c **** 
  73:Src/driver/servo_driver.c **** void servo_set_alarm_reset(servo_motor_t servo)
  74:Src/driver/servo_driver.c **** {
 1148               	.LM46:
 1149               	.LFBB11:
 1150 031c EF92      		push r14
 1151 031e FF92      		push r15
 1152 0320 0F93      		push r16
 1153 0322 1F93      		push r17
 1154 0324 CF93      		push r28
 1155 0326 DF93      		push r29
 1156 0328 CDB7      		in r28,__SP_L__
 1157 032a DEB7      		in r29,__SP_H__
 1158 032c 2C97      		sbiw r28,12
 1159 032e CDBF      		out __SP_L__,r28
 1160 0330 DEBF      		out __SP_H__,r29
 1161               	/* prologue: function */
 1162               	/* frame size = 12 */
 1163               	/* stack size = 18 */
 1164               	.L__stack_usage = 18
 1165 0332 E982      		std Y+1,r14
 1166 0334 FA82      		std Y+2,r15
 1167 0336 0B83      		std Y+3,r16
 1168 0338 1C83      		std Y+4,r17
 1169 033a 2D83      		std Y+5,r18
 1170 033c 3E83      		std Y+6,r19
 1171 033e 4F83      		std Y+7,r20
 1172 0340 5887      		std Y+8,r21
 1173 0342 6987      		std Y+9,r22
 1174 0344 7A87      		std Y+10,r23
 1175 0346 8B87      		std Y+11,r24
 1176 0348 9C87      		std Y+12,r25
 1177 034a EF81      		ldd r30,Y+7
 1178 034c F885      		ldd r31,Y+8
  75:Src/driver/servo_driver.c ****   gpio_set_np(servo.reset_alarm->port, servo.reset_alarm->pin);
 1180               	.LM47:
 1181 034e 6281      		ldd r22,Z+2
 1182 0350 8081      		ld r24,Z
 1183 0352 9181      		ldd r25,Z+1
 1184               	/* epilogue start */
  76:Src/driver/servo_driver.c **** }
 1186               	.LM48:
 1187 0354 2C96      		adiw r28,12
 1188 0356 CDBF      		out __SP_L__,r28
 1189 0358 DEBF      		out __SP_H__,r29
 1190 035a DF91      		pop r29
 1191 035c CF91      		pop r28
 1192 035e 1F91      		pop r17
 1193 0360 0F91      		pop r16
 1194 0362 FF90      		pop r15
 1195 0364 EF90      		pop r14
  75:Src/driver/servo_driver.c ****   gpio_set_np(servo.reset_alarm->port, servo.reset_alarm->pin);
 1197               	.LM49:
 1198 0366 0C94 0000 		jmp gpio_set_np
 1200               	.Lscope11:
 1202               		.stabd	78,0,0
 1205               	.global	servo_clr_alarm_reset
 1207               	servo_clr_alarm_reset:
 1208               		.stabd	46,0,0
  77:Src/driver/servo_driver.c **** 
  78:Src/driver/servo_driver.c **** void servo_clr_alarm_reset(servo_motor_t servo)
  79:Src/driver/servo_driver.c **** {
 1210               	.LM50:
 1211               	.LFBB12:
 1212 036a EF92      		push r14
 1213 036c FF92      		push r15
 1214 036e 0F93      		push r16
 1215 0370 1F93      		push r17
 1216 0372 CF93      		push r28
 1217 0374 DF93      		push r29
 1218 0376 CDB7      		in r28,__SP_L__
 1219 0378 DEB7      		in r29,__SP_H__
 1220 037a 2C97      		sbiw r28,12
 1221 037c CDBF      		out __SP_L__,r28
 1222 037e DEBF      		out __SP_H__,r29
 1223               	/* prologue: function */
 1224               	/* frame size = 12 */
 1225               	/* stack size = 18 */
 1226               	.L__stack_usage = 18
 1227 0380 E982      		std Y+1,r14
 1228 0382 FA82      		std Y+2,r15
 1229 0384 0B83      		std Y+3,r16
 1230 0386 1C83      		std Y+4,r17
 1231 0388 2D83      		std Y+5,r18
 1232 038a 3E83      		std Y+6,r19
 1233 038c 4F83      		std Y+7,r20
 1234 038e 5887      		std Y+8,r21
 1235 0390 6987      		std Y+9,r22
 1236 0392 7A87      		std Y+10,r23
 1237 0394 8B87      		std Y+11,r24
 1238 0396 9C87      		std Y+12,r25
 1239 0398 EF81      		ldd r30,Y+7
 1240 039a F885      		ldd r31,Y+8
  80:Src/driver/servo_driver.c ****   gpio_clr_np(servo.reset_alarm->port, servo.reset_alarm->pin);
 1242               	.LM51:
 1243 039c 6281      		ldd r22,Z+2
 1244 039e 8081      		ld r24,Z
 1245 03a0 9181      		ldd r25,Z+1
 1246               	/* epilogue start */
  81:Src/driver/servo_driver.c **** }...
 1248               	.LM52:
 1249 03a2 2C96      		adiw r28,12
 1250 03a4 CDBF      		out __SP_L__,r28
 1251 03a6 DEBF      		out __SP_H__,r29
 1252 03a8 DF91      		pop r29
 1253 03aa CF91      		pop r28
 1254 03ac 1F91      		pop r17
 1255 03ae 0F91      		pop r16
 1256 03b0 FF90      		pop r15
 1257 03b2 EF90      		pop r14
  80:Src/driver/servo_driver.c ****   gpio_clr_np(servo.reset_alarm->port, servo.reset_alarm->pin);
 1259               	.LM53:
 1260 03b4 0C94 0000 		jmp gpio_clr_np
 1262               	.Lscope12:
 1264               		.stabd	78,0,0
 1266               	.Letext0:
 1267               		.ident	"GCC: (GNU) 5.4.0"
DEFINED SYMBOLS
                            *ABS*:0000000000000000 servo_driver.c
     /tmp/ccMOBawx.s:2      *ABS*:000000000000003e __SP_H__
     /tmp/ccMOBawx.s:3      *ABS*:000000000000003d __SP_L__
     /tmp/ccMOBawx.s:4      *ABS*:000000000000003f __SREG__
     /tmp/ccMOBawx.s:5      *ABS*:0000000000000034 __CCP__
     /tmp/ccMOBawx.s:6      *ABS*:0000000000000000 __tmp_reg__
     /tmp/ccMOBawx.s:7      *ABS*:0000000000000001 __zero_reg__
     /tmp/ccMOBawx.s:492    .text:0000000000000000 servo_cfg_start
     /tmp/ccMOBawx.s:560    .text:0000000000000050 servo_cfg_brake
     /tmp/ccMOBawx.s:627    .text:00000000000000a0 servo_cfg_alarm_in
     /tmp/ccMOBawx.s:692    .text:00000000000000ea servo_cfg_alarm_out
     /tmp/ccMOBawx.s:759    .text:000000000000013a servo_cfg_speed_in
     /tmp/ccMOBawx.s:828    .text:000000000000018c servo_cfg_speed_out
     /tmp/ccMOBawx.s:897    .text:00000000000001e4 servo_start
     /tmp/ccMOBawx.s:959    .text:0000000000000232 servo_stop
     /tmp/ccMOBawx.s:1021   .text:0000000000000280 servo_brake
     /tmp/ccMOBawx.s:1083   .text:00000000000002ce servo_run
     /tmp/ccMOBawx.s:1145   .text:000000000000031c servo_set_alarm_reset
     /tmp/ccMOBawx.s:1207   .text:000000000000036a servo_clr_alarm_reset

UNDEFINED SYMBOLS
gpio_cfg_out_np
gpio_cfg_in_np
gpio_clr_np
gpio_set_np
